target datalayout = "e-m:e-p270:32:32-p271:32:32-p272:64:64-i64:64-i128:128-f80:128-n8:16:32:64-S128"
target triple = "x86_64-pc-linux-gnu"

%struct.pbl_node_t = type { i32, ptr, ptr, ptr, ptr, ptr, ptr, i32 }

@.str.3 = private unnamed_addr constant [2 x i8] c".\00", align 1

; Function Attrs: nounwind null_pointer_is_valid sspstrong uwtable
define internal zeroext i1 @check_node_depth(ptr noundef %0) #7 {
  %2 = alloca i1, align 1
  %3 = alloca ptr, align 8
  %4 = alloca i32, align 4
  %5 = alloca ptr, align 8
  %6 = alloca i32, align 4
  store ptr %0, ptr %3, align 8
  call void @llvm.lifetime.start.p0(i64 4, ptr %4) #13
  store i32 1, ptr %4, align 4
  call void @llvm.lifetime.start.p0(i64 8, ptr %5) #13
  %7 = load ptr, ptr %3, align 8
  store ptr %7, ptr %5, align 8
  br label %8

8:                                                ; preds = %15, %1
  %9 = load ptr, ptr %5, align 8
  %10 = icmp ne ptr %9, null
  br i1 %10, label %12, label %11

11:                                               ; preds = %8
  call void @llvm.lifetime.end.p0(i64 8, ptr %5) #13
  br label %19

12:                                               ; preds = %8
  %13 = load i32, ptr %4, align 4
  %14 = add i32 %13, 1
  store i32 %14, ptr %4, align 4
  br label %15

15:                                               ; preds = %12
  %16 = load ptr, ptr %5, align 8
  %17 = getelementptr inbounds nuw %struct.pbl_node_t, ptr %16, i32 0, i32 3
  %18 = load ptr, ptr %17, align 8
  store ptr %18, ptr %5, align 8
  br label %8, !llvm.loop !10

19:                                               ; preds = %11
  %20 = load i32, ptr %4, align 4
  %21 = icmp sgt i32 %20, 100
  br i1 %21, label %22, label %23

22:                                               ; preds = %19
  store i1 false, ptr %2, align 1
  store i32 1, ptr %6, align 4
  br label %24

23:                                               ; preds = %19
  store i1 true, ptr %2, align 1
  store i32 1, ptr %6, align 4
  br label %24

24:                                               ; preds = %23, %22
  call void @llvm.lifetime.end.p0(i64 4, ptr %4) #13
  %25 = load i1, ptr %2, align 1
  ret i1 %25
}

; Function Attrs: null_pointer_is_valid sspstrong uwtable
define hidden ptr @pbl_get_node_full_name(ptr noundef %0) #0 {
  %2 = alloca ptr, align 8
  %3 = alloca ptr, align 8
  %4 = alloca ptr, align 8
  %5 = alloca i32, align 4
  store ptr %0, ptr %3, align 8
  call void @llvm.lifetime.start.p0(i64 8, ptr %4) #13
  %6 = load ptr, ptr %3, align 8
  %7 = icmp eq ptr %6, null
  br i1 %7, label %23, label %8

8:                                                ; preds = %1
  %9 = load ptr, ptr %3, align 8
  %10 = getelementptr inbounds nuw %struct.pbl_node_t, ptr %9, i32 0, i32 0
  %11 = load i32, ptr %10, align 8
  %12 = icmp eq i32 %11, 0
  br i1 %12, label %23, label %13

13:                                               ; preds = %8
  %14 = load ptr, ptr %3, align 8
  %15 = getelementptr inbounds nuw %struct.pbl_node_t, ptr %14, i32 0, i32 0
  %16 = load i32, ptr %15, align 8
  %17 = icmp eq i32 %16, 10
  br i1 %17, label %23, label %18

18:                                               ; preds = %13
  %19 = load ptr, ptr %3, align 8
  %20 = getelementptr inbounds nuw %struct.pbl_node_t, ptr %19, i32 0, i32 0
  %21 = load i32, ptr %20, align 8
  %22 = icmp eq i32 %21, 11
  br i1 %22, label %23, label %24

23:                                               ; preds = %18, %13, %8, %1
  store ptr null, ptr %2, align 8
  store i32 1, ptr %5, align 4
  br label %92

24:                                               ; preds = %18
  %25 = load ptr, ptr %3, align 8
  %26 = getelementptr inbounds nuw %struct.pbl_node_t, ptr %25, i32 0, i32 2
  %27 = load ptr, ptr %26, align 8
  %28 = icmp ne ptr %27, null
  br i1 %28, label %29, label %33

29:                                               ; preds = %24
  %30 = load ptr, ptr %3, align 8
  %31 = getelementptr inbounds nuw %struct.pbl_node_t, ptr %30, i32 0, i32 2
  %32 = load ptr, ptr %31, align 8
  store ptr %32, ptr %2, align 8
  store i32 1, ptr %5, align 4
  br label %92

33:                                               ; preds = %24
  %34 = load ptr, ptr %3, align 8
  %35 = getelementptr inbounds nuw %struct.pbl_node_t, ptr %34, i32 0, i32 0
  %36 = load i32, ptr %35, align 8
  %37 = icmp eq i32 %36, 4
  br i1 %37, label %38, label %47

38:                                               ; preds = %33
  %39 = load ptr, ptr %3, align 8
  %40 = call zeroext i1 @check_node_depth(ptr noundef %39)
  br i1 %40, label %42, label %41

41:                                               ; preds = %38
  store ptr null, ptr %2, align 8
  store i32 1, ptr %5, align 4
  br label %92

42:                                               ; preds = %38
  %43 = load ptr, ptr %3, align 8
  %44 = getelementptr inbounds nuw %struct.pbl_node_t, ptr %43, i32 0, i32 3
  %45 = load ptr, ptr %44, align 8
  %46 = call ptr @pbl_get_node_full_name(ptr noundef %45)
  store ptr %46, ptr %2, align 8
  store i32 1, ptr %5, align 4
  br label %92

47:                                               ; preds = %33
  %48 = load ptr, ptr %3, align 8
  %49 = getelementptr inbounds nuw %struct.pbl_node_t, ptr %48, i32 0, i32 0
  %50 = load i32, ptr %49, align 8
  %51 = icmp eq i32 %50, 1
  br i1 %51, label %52, label %59

52:                                               ; preds = %47
  %53 = load ptr, ptr %3, align 8
  %54 = getelementptr inbounds nuw %struct.pbl_node_t, ptr %53, i32 0, i32 1
  %55 = load ptr, ptr %54, align 8
  %56 = call noalias ptr @g_strdup(ptr noundef %55)
  %57 = load ptr, ptr %3, align 8
  %58 = getelementptr inbounds nuw %struct.pbl_node_t, ptr %57, i32 0, i32 2
  store ptr %56, ptr %58, align 8
  br label %88

59:                                               ; preds = %47
  %60 = load ptr, ptr %3, align 8
  %61 = getelementptr inbounds nuw %struct.pbl_node_t, ptr %60, i32 0, i32 3
  %62 = load ptr, ptr %61, align 8
  %63 = call ptr @pbl_get_node_full_name(ptr noundef %62)
  store ptr %63, ptr %4, align 8
  %64 = load ptr, ptr %4, align 8
  %65 = icmp ne ptr %64, null
  br i1 %65, label %66, label %80

66:                                               ; preds = %59
  %67 = load ptr, ptr %4, align 8
  %68 = getelementptr i8, ptr %67, i64 0
  %69 = load i8, ptr %68, align 1
  %70 = sext i8 %69 to i32
  %71 = icmp ne i32 %70, 0
  br i1 %71, label %72, label %80

72:                                               ; preds = %66
  %73 = load ptr, ptr %4, align 8
  %74 = load ptr, ptr %3, align 8
  %75 = getelementptr inbounds nuw %struct.pbl_node_t, ptr %74, i32 0, i32 1
  %76 = load ptr, ptr %75, align 8
  %77 = call noalias ptr (ptr, ...) @g_strconcat(ptr noundef %73, ptr noundef @.str.3, ptr noundef %76, ptr noundef null)
  %78 = load ptr, ptr %3, align 8
  %79 = getelementptr inbounds nuw %struct.pbl_node_t, ptr %78, i32 0, i32 2
  store ptr %77, ptr %79, align 8
  br label %87

80:                                               ; preds = %66, %59
  %81 = load ptr, ptr %3, align 8
  %82 = getelementptr inbounds nuw %struct.pbl_node_t, ptr %81, i32 0, i32 1
  %83 = load ptr, ptr %82, align 8
  %84 = call noalias ptr @g_strdup(ptr noundef %83)
  %85 = load ptr, ptr %3, align 8
  %86 = getelementptr inbounds nuw %struct.pbl_node_t, ptr %85, i32 0, i32 2
  store ptr %84, ptr %86, align 8
  br label %87

87:                                               ; preds = %80, %72
  br label %88

88:                                               ; preds = %87, %52
  %89 = load ptr, ptr %3, align 8
  %90 = getelementptr inbounds nuw %struct.pbl_node_t, ptr %89, i32 0, i32 2
  %91 = load ptr, ptr %90, align 8
  store ptr %91, ptr %2, align 8
  store i32 1, ptr %5, align 4
  br label %92

92:                                               ; preds = %88, %42, %41, %29, %23
  call void @llvm.lifetime.end.p0(i64 8, ptr %4) #13
  %93 = load ptr, ptr %2, align 8
  ret ptr %93
}