; Function Attrs: null_pointer_is_valid sspstrong uwtable
define hidden ptr @pbl_get_node_full_name(ptr noundef captures(address_is_null) %0) local_unnamed_addr #0 {
  %2 = icmp eq ptr %0, null
  br i1 %2, label %.loopexit, label %.lr.ph

.lr.ph:                                           ; preds = %1, %tailrecurse
  %.tr33 = phi ptr [ %13, %tailrecurse ], [ %0, %1 ]
  %3 = load i32, ptr %.tr33, align 8
  switch i32 %3, label %4 [
    i32 0, label %.loopexit
    i32 10, label %.loopexit
    i32 11, label %.loopexit
  ]

4:                                                ; preds = %.lr.ph
  %5 = getelementptr inbounds nuw i8, ptr %.tr33, i64 16
  %6 = load ptr, ptr %5, align 8
  %.not = icmp eq ptr %6, null
  br i1 %.not, label %7, label %.loopexit

7:                                                ; preds = %4
  switch i32 %3, label %20 [
    i32 4, label %.preheader
    i32 1, label %15
  ]

.preheader:                                       ; preds = %7, %.preheader
  %.08.i = phi ptr [ %10, %.preheader ], [ %.tr33, %7 ]
  %.057.i = phi i32 [ %8, %.preheader ], [ 1, %7 ]
  %8 = add i32 %.057.i, 1
  %9 = getelementptr inbounds nuw i8, ptr %.08.i, i64 24
  %10 = load ptr, ptr %9, align 8
  %.not.i = icmp eq ptr %10, null
  br i1 %.not.i, label %check_node_depth.exit, label %.preheader, !llvm.loop !13

check_node_depth.exit:                            ; preds = %.preheader
  %11 = icmp slt i32 %8, 101
  br i1 %11, label %tailrecurse, label %.loopexit

tailrecurse:                                      ; preds = %check_node_depth.exit
  %12 = getelementptr inbounds nuw i8, ptr %.tr33, i64 24
  %13 = load ptr, ptr %12, align 8
  %14 = icmp eq ptr %13, null
  br i1 %14, label %.loopexit, label %.lr.ph

15:                                               ; preds = %7
  %16 = getelementptr inbounds nuw i8, ptr %.tr33, i64 16
  %17 = getelementptr inbounds nuw i8, ptr %.tr33, i64 8
  %18 = load ptr, ptr %17, align 8
  %19 = tail call noalias ptr @g_strdup(ptr noundef %18)
  store ptr %19, ptr %16, align 8
  br label %.loopexit

20:                                               ; preds = %7
  %21 = getelementptr inbounds nuw i8, ptr %.tr33, i64 16
  %22 = getelementptr inbounds nuw i8, ptr %.tr33, i64 24
  %23 = load ptr, ptr %22, align 8
  %24 = tail call ptr @pbl_get_node_full_name(ptr noundef %23)
  %.not26 = icmp eq ptr %24, null
  br i1 %.not26, label %31, label %25

25:                                               ; preds = %20
  %26 = load i8, ptr %24, align 1
  %.not27 = icmp eq i8 %26, 0
  br i1 %.not27, label %31, label %27

27:                                               ; preds = %25
  %28 = getelementptr inbounds nuw i8, ptr %.tr33, i64 8
  %29 = load ptr, ptr %28, align 8
  %30 = tail call noalias ptr (ptr, ...) @g_strconcat(ptr noundef nonnull %24, ptr noundef nonnull @.str.3, ptr noundef %29, ptr noundef null)
  store ptr %30, ptr %21, align 8
  br label %.loopexit

31:                                               ; preds = %25, %20
  %32 = getelementptr inbounds nuw i8, ptr %.tr33, i64 8
  %33 = load ptr, ptr %32, align 8
  %34 = tail call noalias ptr @g_strdup(ptr noundef %33)
  store ptr %34, ptr %21, align 8
  br label %.loopexit

.loopexit:                                        ; preds = %.lr.ph, %.lr.ph, %.lr.ph, %tailrecurse, %4, %check_node_depth.exit, %15, %31, %27, %1
  %.0 = phi ptr [ null, %1 ], [ %30, %27 ], [ %34, %31 ], [ %19, %15 ], [ null, %.lr.ph ], [ null, %.lr.ph ], [ null, %.lr.ph ], [ null, %tailrecurse ], [ %6, %4 ], [ null, %check_node_depth.exit ]
  ret ptr %.0
}